target datalayout = "e-m:e-p270:32:32-p271:32:32-p272:64:64-i64:64-i128:128-f80:128-n8:16:32:64-S128"
target triple = "x86_64-pc-linux-gnu"

%struct._GtkTreeIter = type { i32, ptr, ptr, ptr }

; Function Attrs: nounwind uwtable
define dso_local void @remove_old(ptr noundef %0, i32 noundef %1) #0 {
  %3 = alloca ptr, align 8
  %4 = alloca i32, align 4
  %5 = alloca ptr, align 8
  %6 = alloca %struct._GtkTreeIter, align 8
  %7 = alloca i32, align 4
  store ptr %0, ptr %3, align 8
  store i32 %1, ptr %4, align 4
  call void @llvm.lifetime.start.p0(i64 8, ptr %5) #11
  %8 = call ptr @gtk_tree_path_new_first()
  store ptr %8, ptr %5, align 8
  call void @llvm.lifetime.start.p0(i64 32, ptr %6) #11
  call void @llvm.lifetime.start.p0(i64 4, ptr %7) #11
  %9 = load ptr, ptr %3, align 8
  %10 = load ptr, ptr %5, align 8
  %11 = call i32 @gtk_tree_model_get_iter(ptr noundef %9, ptr noundef %6, ptr noundef %10)
  %12 = icmp ne i32 %11, 0
  br i1 %12, label %13, label %35

13:                                               ; preds = %2
  br label %14

14:                                               ; preds = %33, %27, %13
  br label %15

15:                                               ; preds = %14
  %16 = load ptr, ptr %3, align 8
  %17 = load i32, ptr %4, align 4
  call void (ptr, ptr, ...) @gtk_tree_model_get(ptr noundef %16, ptr noundef %6, i32 noundef %17, ptr noundef %7, i32 noundef -1)
  %18 = load i32, ptr %7, align 4
  %19 = icmp ne i32 %18, 0
  br i1 %19, label %28, label %20

20:                                               ; preds = %15
  %21 = load ptr, ptr %3, align 8
  %22 = call i64 @gtk_tree_store_get_type() #12
  %23 = call ptr @g_type_check_instance_cast(ptr noundef %21, i64 noundef %22)
  %24 = call i32 @gtk_tree_store_remove(ptr noundef %23, ptr noundef %6)
  %25 = icmp ne i32 %24, 0
  br i1 %25, label %27, label %26

26:                                               ; preds = %20
  br label %34

27:                                               ; preds = %20
  br label %14, !llvm.loop !47

28:                                               ; preds = %15
  %29 = load ptr, ptr %3, align 8
  %30 = call i32 @gtk_tree_model_iter_next(ptr noundef %29, ptr noundef %6)
  %31 = icmp ne i32 %30, 0
  br i1 %31, label %33, label %32

32:                                               ; preds = %28
  br label %34

33:                                               ; preds = %28
  br label %14, !llvm.loop !47

34:                                               ; preds = %32, %26
  br label %35

35:                                               ; preds = %34, %2
  %36 = load ptr, ptr %5, align 8
  call void @gtk_tree_path_free(ptr noundef %36)
  call void @llvm.lifetime.end.p0(i64 4, ptr %7) #11
  call void @llvm.lifetime.end.p0(i64 32, ptr %6) #11
  call void @llvm.lifetime.end.p0(i64 8, ptr %5) #11
  ret void
}