; Function Attrs: nounwind uwtable
define dso_local void @remove_old(ptr noundef %0, i32 noundef %1) local_unnamed_addr #2 {
  %3 = alloca %struct._GtkTreeIter, align 8
  %4 = alloca i32, align 4
  %5 = tail call ptr @gtk_tree_path_new_first() #16
  call void @llvm.lifetime.start.p0(i64 32, ptr nonnull %3) #16
  call void @llvm.lifetime.start.p0(i64 4, ptr nonnull %4) #16
  %6 = call i32 @gtk_tree_model_get_iter(ptr noundef %0, ptr noundef nonnull %3, ptr noundef %5) #16
  %.not = icmp eq i32 %6, 0
  br i1 %.not, label %.loopexit, label %.preheader

.preheader:                                       ; preds = %2, %.preheader.backedge
  call void (ptr, ptr, ...) @gtk_tree_model_get(ptr noundef %0, ptr noundef nonnull %3, i32 noundef %1, ptr noundef nonnull %4, i32 noundef -1) #16
  %7 = load i32, ptr %4, align 4
  %.not6 = icmp eq i32 %7, 0
  br i1 %.not6, label %8, label %12

8:                                                ; preds = %.preheader
  %9 = tail call i64 @gtk_tree_store_get_type() #17
  %10 = call ptr @g_type_check_instance_cast(ptr noundef %0, i64 noundef %9) #16
  %11 = call i32 @gtk_tree_store_remove(ptr noundef %10, ptr noundef nonnull %3) #16
  %.not7 = icmp eq i32 %11, 0
  br i1 %.not7, label %.loopexit, label %.preheader.backedge

.preheader.backedge:                              ; preds = %8, %12
  br label %.preheader, !llvm.loop !45

12:                                               ; preds = %.preheader
  %13 = call i32 @gtk_tree_model_iter_next(ptr noundef %0, ptr noundef nonnull %3) #16
  %.not8 = icmp eq i32 %13, 0
  br i1 %.not8, label %.loopexit, label %.preheader.backedge

.loopexit:                                        ; preds = %8, %12, %2
  call void @gtk_tree_path_free(ptr noundef %5) #16
  call void @llvm.lifetime.end.p0(i64 4, ptr nonnull %4) #16
  call void @llvm.lifetime.end.p0(i64 32, ptr nonnull %3) #16
  ret void
}